target datalayout = "e-m:e-p270:32:32-p271:32:32-p272:64:64-i64:64-i128:128-f80:128-n8:16:32:64-S128"
target triple = "x86_64-pc-linux-gnu"

%class.LibRaw = type { ptr, %struct.libraw_data_t, ptr, %struct.libraw_internal_data_t, [2048 x %struct.decode], ptr, ptr, [10 x %struct.tiff_ifd_t], %class.libraw_memmgr, %struct.libraw_callbacks_t, { i64, i64 }, { i64, i64 }, { i64, i64 }, ptr, ptr, ptr, i64, ptr, ptr, ptr, ptr }
%struct.libraw_data_t = type { ptr, %struct.libraw_image_sizes_t, %struct.libraw_iparams_t, %struct.libraw_lensinfo_t, %struct.libraw_makernotes_t, %struct.libraw_shootinginfo_t, %struct.libraw_output_params_t, %struct.libraw_raw_unpack_params_t, i32, i32, %struct.libraw_colordata_t, %struct.libraw_imgother_t, %struct.libraw_thumbnail_t, %struct.libraw_thumbnail_list_t, %struct.libraw_rawdata_t, ptr }
%struct.libraw_image_sizes_t = type { i16, i16, i16, i16, i16, i16, i16, i16, i32, double, i32, [8 x [4 x i32]], i16, [2 x %struct.libraw_raw_inset_crop_t] }
%struct.libraw_raw_inset_crop_t = type { i16, i16, i16, i16 }
%struct.libraw_iparams_t = type { [4 x i8], [64 x i8], [64 x i8], [64 x i8], [64 x i8], [64 x i8], i32, i32, i32, i32, i32, i32, [6 x [6 x i8]], [6 x [6 x i8]], [5 x i8], i32, ptr }
%struct.libraw_lensinfo_t = type { float, float, float, float, float, [128 x i8], [128 x i8], [128 x i8], [128 x i8], i16, %struct.libraw_nikonlens_t, %struct.libraw_dnglens_t, %struct.libraw_makernotes_lens_t }
%struct.libraw_nikonlens_t = type { float, i8, i8, i8, i8 }
%struct.libraw_dnglens_t = type { float, float, float, float }
%struct.libraw_makernotes_lens_t = type { i64, [128 x i8], i16, i16, i64, i16, i16, [64 x i8], i16, [16 x i8], [16 x i8], float, float, float, float, float, float, float, float, float, float, float, float, float, float, float, i64, [128 x i8], i64, [128 x i8], i64, [128 x i8], i16, float }
%struct.libraw_makernotes_t = type { %struct.libraw_canon_makernotes_t, %struct.libraw_nikon_makernotes_t, %struct.libraw_hasselblad_makernotes_t, %struct.libraw_fuji_info_t, %struct.libraw_olympus_makernotes_t, %struct.libraw_sony_info_t, %struct.libraw_kodak_makernotes_t, %struct.libraw_panasonic_makernotes_t, %struct.libraw_pentax_makernotes_t, %struct.libraw_p1_makernotes_t, %struct.libraw_ricoh_makernotes_t, %struct.libraw_samsung_makernotes_t, %struct.libraw_metadata_common_t }
%struct.libraw_canon_makernotes_t = type { i32, i32, i32, i32, [4 x i32], i32, [4 x i32], i16, i16, i8, i16, i16, i16, i16, i16, i16, i16, i16, i16, i16, i16, i16, i16, i32, float, i16, i16, i16, i32, i16, i32, i32, i16, i32, %struct.libraw_area_t, %struct.libraw_area_t, %struct.libraw_area_t, %struct.libraw_area_t, %struct.libraw_area_t, [2 x i16] }
%struct.libraw_area_t = type { i16, i16, i16, i16 }
%struct.libraw_nikon_makernotes_t = type { double, i16, i16, [7 x i8], i8, i8, [13 x i8], [20 x i8], [4 x i8], [4 x i8], [4 x i8], i8, i8, i8, i8, i8, [2 x i8], i8, i8, i8, i8, i8, [4 x i8], [4 x i8], i8, i16, i32, i32, i32, i32, [4 x double], i8, i8, i8, i32, i32, i32, i8, [4 x i16], i16, %struct.libraw_sensor_highspeed_crop_t, i16, i16, i16, i32, [20 x i8], [20 x i8], i32, i16, double, double, double }
%struct.libraw_sensor_highspeed_crop_t = type { i16, i16, i16, i16 }
%struct.libraw_hasselblad_makernotes_t = type { i32, double, [8 x i8], [64 x i8], [64 x i8], i32, i32, i32, i32, [32 x i8], [64 x i8], i32, [2 x i32], [2 x i32], [4 x [3 x double]] }
%struct.libraw_fuji_info_t = type { float, i16, i16, i16, i16, i16, i16, i16, i16, [33 x i8], [33 x i8], float, i16, i16, [2 x i16], i16, i32, i32, i16, [3 x i16], i16, i16, i16, i16, i16, i32, i16, [13 x i8], [5 x i8], [5 x i8], i32, i16, i32, i16, [9 x i16], [32 x i32], i32, i32, i32, [2 x float], i32 }
%struct.libraw_olympus_makernotes_t = type { [6 x i8], i16, [2 x i32], [5 x i16], i16, [2 x i16], i16, i16, [64 x i32], [5 x double], i16, i8, [3 x i16], [3 x i32], i16, i16, i16, i16, double, [4 x i16], [2 x i32], i8, i32, i16, i16 }
%struct.libraw_sony_info_t = type { i16, i8, i8, i32, i8, i32, i8, i8, i16, [2 x i16], i8, i8, i16, [10 x i8], i8, i8, [4 x i16], i16, i8, i8, i8, i16, i32, i16, [2 x i16], i16, i16, i16, i16, i16, i16, i16, i32, float, i16, i32, i32, i16, [20 x i8], i32, i16, i32, i8, i8, i16, i16, i16, i16, i16, i16, i16, i16, i16, i32, i16, [16 x i8], float }
%struct.libraw_kodak_makernotes_t = type { i16, i16, i16, i16, i16, i16, [3 x [3 x float]], [3 x [3 x float]], [3 x [3 x float]], [3 x [3 x float]], [3 x [3 x float]], [3 x [3 x float]], i16, i16, i16, i16, float, float }
%struct.libraw_panasonic_makernotes_t = type { i16, i16, [8 x float], i32, float, [3 x i32], i16, i16, i32, i32 }
%struct.libraw_pentax_makernotes_t = type { [4 x i8], [2 x i16], [2 x i16], i16, i32, i32, i16, i16, i8, i8, i16 }
%struct.libraw_p1_makernotes_t = type { [64 x i8], [64 x i8], [256 x i8], [64 x i8] }
%struct.libraw_ricoh_makernotes_t = type { i16, [2 x i32], [2 x i32], i16, i32, i32, i32, i32, i16, i16, i16, i16, i16, i16, double, double }
%struct.libraw_samsung_makernotes_t = type { [4 x i32], [4 x i32], [2 x i32], [11 x i32], double, i32, [32 x i8] }
%struct.libraw_metadata_common_t = type { float, float, float, float, float, float, float, float, float, float, float, float, float, float, float, float, i16, [128 x i8], float, [4 x %struct.libraw_afinfo_item_t], i32 }
%struct.libraw_afinfo_item_t = type { i32, i16, i32, i32, ptr }
%struct.libraw_shootinginfo_t = type { i16, i16, i16, i16, i16, i16, i16, [64 x i8], [64 x i8] }
%struct.libraw_output_params_t = type { [4 x i32], [4 x i32], [4 x double], [6 x double], [4 x float], float, float, i32, i32, i32, i32, i32, i32, i32, ptr, ptr, ptr, ptr, i32, i32, i32, i32, i32, i32, [4 x i32], i32, i32, float, float, i32, i32, i32, i32, i32, i32, i32, i32, float, float, i32, i32 }
%struct.libraw_raw_unpack_params_t = type { i32, i32, i32, i32, i32, i32, i32, float, [5 x i8], ptr }
%struct.libraw_colordata_t = type { [65536 x i16], [4104 x i32], i32, i32, i32, [4 x i64], float, float, [8 x [8 x i16]], [4 x float], [4 x float], [3 x [4 x float]], [3 x [4 x float]], [3 x [4 x float]], [4 x [3 x float]], %struct.ph1_t, float, float, [64 x i8], [64 x i8], [64 x i8], [64 x i8], [17 x i8], [64 x i8], ptr, i32, [8 x i32], [2 x %struct.libraw_dng_color_t], %struct.libraw_dng_levels_t, [256 x [4 x i32]], [64 x [5 x float]], i32, [2 x %struct.libraw_P1_color_t], i32, i32 }
%struct.ph1_t = type { i32, i32, i32, i32, i32, i32, i32, i32, float }
%struct.libraw_dng_color_t = type { i32, i16, [4 x [4 x float]], [4 x [3 x float]], [3 x [4 x float]] }
%struct.libraw_dng_levels_t = type { i32, [4104 x i32], i32, [4104 x float], float, [4 x i32], [4 x i16], [4 x float], i32, [4 x float], [4 x float], float, float }
%struct.libraw_P1_color_t = type { [9 x float] }
%struct.libraw_imgother_t = type { float, float, float, float, i64, i32, [32 x i32], %struct.libraw_gps_info_t, [512 x i8], [64 x i8], [4 x float] }
%struct.libraw_gps_info_t = type { [3 x float], [3 x float], [3 x float], float, i8, i8, i8, i8, i8 }
%struct.libraw_thumbnail_t = type { i32, i16, i16, i32, i32, ptr }
%struct.libraw_thumbnail_list_t = type { i32, [8 x %struct.libraw_thumbnail_item_t] }
%struct.libraw_thumbnail_item_t = type { i32, i16, i16, i16, i32, i32, i64 }
%struct.libraw_rawdata_t = type { ptr, ptr, ptr, ptr, ptr, ptr, ptr, ptr, ptr, %struct.libraw_iparams_t, %struct.libraw_image_sizes_t, %struct.libraw_internal_output_params_t, %struct.libraw_colordata_t }
%struct.libraw_internal_output_params_t = type { i32, i32, i32, i16, i16 }
%struct.libraw_internal_data_t = type { %struct.internal_data_t, %struct.libraw_internal_output_params_t, %struct.output_data_t, %struct.identify_data_t, %struct.unpacker_data_t }
%struct.internal_data_t = type { ptr, ptr, i32, ptr, i64, i64, [4 x i32] }
%struct.output_data_t = type { ptr, ptr }
%struct.identify_data_t = type { i32, i64, i64, i32, i32, i32 }
%struct.unpacker_data_t = type { i16, [4 x i16], [3 x i16], i32, i64, i64, i64, i64, i64, i64, i32, i32, i32, i32, i32, i32, i32, i32, i32, i32, i32, i32, i32, i32, i32, i32, i32, i64, i32, i32, i32, i32, i32, i32, i32, i32, i32, %struct.pana8_tags_t, [16 x %struct.crx_data_header_t], i32, i32, i16, i16, i32, i32, i32, i32, i32, i32, i32, [20 x i32], i16 }
%struct.pana8_tags_t = type { [6 x i32], [6 x i16], i16, [4 x i16], [17 x i16], [17 x i16], [17 x i16], i16, i16, [5 x i64], [5 x i16], [5 x i32], [5 x i16], [5 x i16] }
%struct.crx_data_header_t = type { i32, i32, i32, i32, i32, i32, i32, i32, i32, i32, i32, i32, i32, i32, i32, i64, i32, ptr, i32, i32, i32, ptr, i32, ptr }
%struct.decode = type { [2 x ptr], i32 }
%struct.tiff_ifd_t = type { i32, i32, i32, i32, i32, i32, i32, i32, i32, i32, i32, i32, i32, i32, i32, ptr, i32, ptr, i32, i32, i32, i32, i32, i32, i32, float, i64, i64, i32, [2 x %struct.libraw_dng_color_t], %struct.libraw_dng_levels_t, i32 }
%class.libraw_memmgr = type <{ ptr, i32, [4 x i8] }>
%struct.libraw_callbacks_t = type { ptr, ptr, ptr, ptr, ptr, ptr, ptr, ptr, ptr, ptr, ptr, ptr, ptr, ptr, ptr, ptr, ptr }

; Function Attrs: mustprogress nounwind uwtable
define void @_ZN6LibRaw20lin_interpolate_loopEPii(ptr noundef nonnull align 8 dereferenceable(767680) %0, ptr noundef %1, i32 noundef %2) unnamed_addr #3 align 2 {
  %4 = alloca ptr, align 8
  %5 = alloca ptr, align 8
  %6 = alloca i32, align 4
  %7 = alloca i32, align 4
  %8 = alloca i32, align 4
  %9 = alloca ptr, align 8
  %10 = alloca ptr, align 8
  %11 = alloca i32, align 4
  %12 = alloca [4 x i32], align 16
  store ptr %0, ptr %4, align 8, !tbaa !6
  store ptr %1, ptr %5, align 8, !tbaa !105
  store i32 %2, ptr %6, align 4, !tbaa !74
  %13 = load ptr, ptr %4, align 8
  call void @llvm.lifetime.start.p0(i64 4, ptr %7) #14
  store i32 1, ptr %7, align 4, !tbaa !74
  br label %14

14:                                               ; preds = %128, %3
  %15 = load i32, ptr %7, align 4, !tbaa !74
  %16 = getelementptr inbounds nuw %class.LibRaw, ptr %13, i32 0, i32 1
  %17 = getelementptr inbounds nuw %struct.libraw_data_t, ptr %16, i32 0, i32 1
  %18 = getelementptr inbounds nuw %struct.libraw_image_sizes_t, ptr %17, i32 0, i32 2
  %19 = load i16, ptr %18, align 4, !tbaa !80
  %20 = zext i16 %19 to i32
  %21 = sub nsw i32 %20, 1
  %22 = icmp slt i32 %15, %21
  br i1 %22, label %23, label %131

23:                                               ; preds = %14
  call void @llvm.lifetime.start.p0(i64 4, ptr %8) #14
  call void @llvm.lifetime.start.p0(i64 8, ptr %9) #14
  call void @llvm.lifetime.start.p0(i64 8, ptr %10) #14
  store i32 1, ptr %8, align 4, !tbaa !74
  br label %24

24:                                               ; preds = %124, %23
  %25 = load i32, ptr %8, align 4, !tbaa !74
  %26 = getelementptr inbounds nuw %class.LibRaw, ptr %13, i32 0, i32 1
  %27 = getelementptr inbounds nuw %struct.libraw_data_t, ptr %26, i32 0, i32 1
  %28 = getelementptr inbounds nuw %struct.libraw_image_sizes_t, ptr %27, i32 0, i32 3
  %29 = load i16, ptr %28, align 2, !tbaa !82
  %30 = zext i16 %29 to i32
  %31 = sub nsw i32 %30, 1
  %32 = icmp slt i32 %25, %31
  br i1 %32, label %33, label %127

33:                                               ; preds = %24
  call void @llvm.lifetime.start.p0(i64 4, ptr %11) #14
  call void @llvm.lifetime.start.p0(i64 16, ptr %12) #14
  %34 = getelementptr inbounds nuw %class.LibRaw, ptr %13, i32 0, i32 1
  %35 = getelementptr inbounds nuw %struct.libraw_data_t, ptr %34, i32 0, i32 0
  %36 = load ptr, ptr %35, align 8, !tbaa !84
  %37 = load i32, ptr %7, align 4, !tbaa !74
  %38 = getelementptr inbounds nuw %class.LibRaw, ptr %13, i32 0, i32 1
  %39 = getelementptr inbounds nuw %struct.libraw_data_t, ptr %38, i32 0, i32 1
  %40 = getelementptr inbounds nuw %struct.libraw_image_sizes_t, ptr %39, i32 0, i32 3
  %41 = load i16, ptr %40, align 2, !tbaa !82
  %42 = zext i16 %41 to i32
  %43 = mul nsw i32 %37, %42
  %44 = load i32, ptr %8, align 4, !tbaa !74
  %45 = add nsw i32 %43, %44
  %46 = sext i32 %45 to i64
  %47 = getelementptr inbounds [4 x i16], ptr %36, i64 %46
  %48 = getelementptr inbounds [4 x i16], ptr %47, i64 0, i64 0
  store ptr %48, ptr %10, align 8, !tbaa !89
  %49 = load ptr, ptr %5, align 8, !tbaa !105
  %50 = load i32, ptr %7, align 4, !tbaa !74
  %51 = load i32, ptr %6, align 4, !tbaa !74
  %52 = srem i32 %50, %51
  %53 = mul nsw i32 %52, 16
  %54 = load i32, ptr %8, align 4, !tbaa !74
  %55 = load i32, ptr %6, align 4, !tbaa !74
  %56 = srem i32 %54, %55
  %57 = add nsw i32 %53, %56
  %58 = mul nsw i32 %57, 32
  %59 = sext i32 %58 to i64
  %60 = getelementptr inbounds i32, ptr %49, i64 %59
  store ptr %60, ptr %9, align 8, !tbaa !105
  %61 = getelementptr inbounds [4 x i32], ptr %12, i64 0, i64 0
  call void @llvm.memset.p0.i64(ptr align 16 %61, i8 0, i64 16, i1 false)
  %62 = load ptr, ptr %9, align 8, !tbaa !105
  %63 = getelementptr inbounds nuw i32, ptr %62, i32 1
  store ptr %63, ptr %9, align 8, !tbaa !105
  %64 = load i32, ptr %62, align 4, !tbaa !74
  store i32 %64, ptr %11, align 4, !tbaa !74
  br label %65

65:                                               ; preds = %89, %33
  %66 = load i32, ptr %11, align 4, !tbaa !74
  %67 = add nsw i32 %66, -1
  store i32 %67, ptr %11, align 4, !tbaa !74
  %68 = icmp ne i32 %66, 0
  br i1 %68, label %69, label %92

69:                                               ; preds = %65
  %70 = load ptr, ptr %10, align 8, !tbaa !89
  %71 = load ptr, ptr %9, align 8, !tbaa !105
  %72 = getelementptr inbounds i32, ptr %71, i64 0
  %73 = load i32, ptr %72, align 4, !tbaa !74
  %74 = sext i32 %73 to i64
  %75 = getelementptr inbounds i16, ptr %70, i64 %74
  %76 = load i16, ptr %75, align 2, !tbaa !85
  %77 = zext i16 %76 to i32
  %78 = load ptr, ptr %9, align 8, !tbaa !105
  %79 = getelementptr inbounds i32, ptr %78, i64 1
  %80 = load i32, ptr %79, align 4, !tbaa !74
  %81 = shl i32 %77, %80
  %82 = load ptr, ptr %9, align 8, !tbaa !105
  %83 = getelementptr inbounds i32, ptr %82, i64 2
  %84 = load i32, ptr %83, align 4, !tbaa !74
  %85 = sext i32 %84 to i64
  %86 = getelementptr inbounds [4 x i32], ptr %12, i64 0, i64 %85
  %87 = load i32, ptr %86, align 4, !tbaa !74
  %88 = add nsw i32 %87, %81
  store i32 %88, ptr %86, align 4, !tbaa !74
  br label %89

89:                                               ; preds = %69
  %90 = load ptr, ptr %9, align 8, !tbaa !105
  %91 = getelementptr inbounds i32, ptr %90, i64 3
  store ptr %91, ptr %9, align 8, !tbaa !105
  br label %65, !llvm.loop !106

92:                                               ; preds = %65
  %93 = getelementptr inbounds nuw %class.LibRaw, ptr %13, i32 0, i32 1
  %94 = getelementptr inbounds nuw %struct.libraw_data_t, ptr %93, i32 0, i32 2
  %95 = getelementptr inbounds nuw %struct.libraw_iparams_t, ptr %94, i32 0, i32 10
  %96 = load i32, ptr %95, align 4, !tbaa !95
  store i32 %96, ptr %11, align 4, !tbaa !74
  br label %97

97:                                               ; preds = %120, %92
  %98 = load i32, ptr %11, align 4, !tbaa !74
  %99 = add nsw i32 %98, -1
  store i32 %99, ptr %11, align 4, !tbaa !74
  %100 = icmp ne i32 %99, 0
  br i1 %100, label %101, label %123

101:                                              ; preds = %97
  %102 = load ptr, ptr %9, align 8, !tbaa !105
  %103 = getelementptr inbounds i32, ptr %102, i64 0
  %104 = load i32, ptr %103, align 4, !tbaa !74
  %105 = sext i32 %104 to i64
  %106 = getelementptr inbounds [4 x i32], ptr %12, i64 0, i64 %105
  %107 = load i32, ptr %106, align 4, !tbaa !74
  %108 = load ptr, ptr %9, align 8, !tbaa !105
  %109 = getelementptr inbounds i32, ptr %108, i64 1
  %110 = load i32, ptr %109, align 4, !tbaa !74
  %111 = mul nsw i32 %107, %110
  %112 = ashr i32 %111, 8
  %113 = trunc i32 %112 to i16
  %114 = load ptr, ptr %10, align 8, !tbaa !89
  %115 = load ptr, ptr %9, align 8, !tbaa !105
  %116 = getelementptr inbounds i32, ptr %115, i64 0
  %117 = load i32, ptr %116, align 4, !tbaa !74
  %118 = sext i32 %117 to i64
  %119 = getelementptr inbounds i16, ptr %114, i64 %118
  store i16 %113, ptr %119, align 2, !tbaa !85
  br label %120

120:                                              ; preds = %101
  %121 = load ptr, ptr %9, align 8, !tbaa !105
  %122 = getelementptr inbounds i32, ptr %121, i64 2
  store ptr %122, ptr %9, align 8, !tbaa !105
  br label %97, !llvm.loop !107

123:                                              ; preds = %97
  call void @llvm.lifetime.end.p0(i64 16, ptr %12) #14
  call void @llvm.lifetime.end.p0(i64 4, ptr %11) #14
  br label %124

124:                                              ; preds = %123
  %125 = load i32, ptr %8, align 4, !tbaa !74
  %126 = add nsw i32 %125, 1
  store i32 %126, ptr %8, align 4, !tbaa !74
  br label %24, !llvm.loop !108

127:                                              ; preds = %24
  call void @llvm.lifetime.end.p0(i64 8, ptr %10) #14
  call void @llvm.lifetime.end.p0(i64 8, ptr %9) #14
  call void @llvm.lifetime.end.p0(i64 4, ptr %8) #14
  br label %128

128:                                              ; preds = %127
  %129 = load i32, ptr %7, align 4, !tbaa !74
  %130 = add nsw i32 %129, 1
  store i32 %130, ptr %7, align 4, !tbaa !74
  br label %14, !llvm.loop !109

131:                                              ; preds = %14
  call void @llvm.lifetime.end.p0(i64 4, ptr %7) #14
  ret void
}