; Function Attrs: mustprogress nofree norecurse nosync nounwind memory(readwrite, inaccessiblemem: none) uwtable
define void @_ZN6LibRaw20lin_interpolate_loopEPii(ptr noundef nonnull readonly align 8 captures(none) dereferenceable(767680) %0, ptr noundef readonly captures(none) %1, i32 noundef %2) unnamed_addr #5 align 2 {
  %4 = alloca [4 x i32], align 16
  %5 = getelementptr inbounds nuw i8, ptr %0, i64 20
  %6 = load i16, ptr %5, align 4, !tbaa !77
  %7 = icmp ugt i16 %6, 2
  br i1 %7, label %.preheader.lr.ph, label %._crit_edge43

.preheader.lr.ph:                                 ; preds = %3
  %8 = getelementptr inbounds nuw i8, ptr %0, i64 8
  %9 = getelementptr inbounds nuw i8, ptr %0, i64 22
  %10 = load ptr, ptr %8, align 8
  %11 = getelementptr inbounds nuw i8, ptr %0, i64 540
  %12 = load i32, ptr %11, align 4
  %.fr44 = freeze i32 %12
  %13 = add i32 %.fr44, -1
  %.not2933 = icmp eq i32 %13, 0
  %14 = load i16, ptr %9, align 2, !tbaa !79
  br i1 %.not2933, label %.preheader.lr.ph.split.us, label %.preheader

.preheader.lr.ph.split.us:                        ; preds = %.preheader.lr.ph
  %15 = icmp ugt i16 %14, 2
  br i1 %15, label %.preheader.us.us.preheader, label %._crit_edge43

.preheader.us.us.preheader:                       ; preds = %.preheader.lr.ph.split.us
  %16 = zext i16 %14 to i64
  %17 = add nuw nsw i64 %16, 4294967295
  %18 = zext i16 %6 to i32
  %19 = zext i16 %14 to i64
  %wide.trip.count = and i64 %17, 4294967295
  %20 = add nsw i32 %18, -2
  br label %.preheader.us.us

.preheader.us.us:                                 ; preds = %.preheader.us.us.preheader, %._crit_edge40.split.us.us.us
  %indvars.iv50 = phi i64 [ %19, %.preheader.us.us.preheader ], [ %indvars.iv.next51, %._crit_edge40.split.us.us.us ]
  %.02441.us.us = phi i32 [ 1, %.preheader.us.us.preheader ], [ %50, %._crit_edge40.split.us.us.us ]
  %21 = srem i32 %.02441.us.us, %2
  %22 = shl i32 %21, 9
  %23 = getelementptr inbounds nuw [4 x i16], ptr %10, i64 %indvars.iv50
  br label %24

24:                                               ; preds = %._crit_edge.us.us.us, %.preheader.us.us
  %indvars.iv47 = phi i64 [ %indvars.iv.next48, %._crit_edge.us.us.us ], [ 1, %.preheader.us.us ]
  call void @llvm.lifetime.start.p0(i64 16, ptr nonnull %4) #11
  %25 = getelementptr inbounds nuw [4 x i16], ptr %23, i64 %indvars.iv47
  %26 = trunc nuw nsw i64 %indvars.iv47 to i32
  %27 = srem i32 %26, %2
  %28 = shl i32 %27, 5
  %29 = add i32 %28, %22
  %30 = sext i32 %29 to i64
  %31 = getelementptr inbounds i32, ptr %1, i64 %30
  call void @llvm.memset.p0.i64(ptr noundef nonnull align 16 dereferenceable(16) %4, i8 0, i64 16, i1 false)
  %32 = load i32, ptr %31, align 4, !tbaa !96
  %.not30.us.us.us = icmp eq i32 %32, 0
  br i1 %.not30.us.us.us, label %._crit_edge.us.us.us, label %.lr.ph.us.us.us.preheader

.lr.ph.us.us.us.preheader:                        ; preds = %24
  %33 = getelementptr inbounds nuw i8, ptr %31, i64 4
  br label %.lr.ph.us.us.us

.lr.ph.us.us.us:                                  ; preds = %.lr.ph.us.us.us.preheader, %.lr.ph.us.us.us
  %.032.us.us.us = phi i32 [ %34, %.lr.ph.us.us.us ], [ %32, %.lr.ph.us.us.us.preheader ]
  %.02531.us.us.us = phi ptr [ %49, %.lr.ph.us.us.us ], [ %33, %.lr.ph.us.us.us.preheader ]
  %34 = add nsw i32 %.032.us.us.us, -1
  %35 = load i32, ptr %.02531.us.us.us, align 4, !tbaa !96
  %36 = sext i32 %35 to i64
  %37 = getelementptr inbounds i16, ptr %25, i64 %36
  %38 = load i16, ptr %37, align 2, !tbaa !82
  %39 = zext i16 %38 to i32
  %40 = getelementptr inbounds nuw i8, ptr %.02531.us.us.us, i64 4
  %41 = load i32, ptr %40, align 4, !tbaa !96
  %42 = shl i32 %39, %41
  %43 = getelementptr inbounds nuw i8, ptr %.02531.us.us.us, i64 8
  %44 = load i32, ptr %43, align 4, !tbaa !96
  %45 = sext i32 %44 to i64
  %46 = getelementptr inbounds [4 x i32], ptr %4, i64 0, i64 %45
  %47 = load i32, ptr %46, align 4, !tbaa !96
  %48 = add nsw i32 %47, %42
  store i32 %48, ptr %46, align 4, !tbaa !96
  %49 = getelementptr inbounds nuw i8, ptr %.02531.us.us.us, i64 12
  %.not.us.us.us = icmp eq i32 %34, 0
  br i1 %.not.us.us.us, label %._crit_edge.us.us.us, label %.lr.ph.us.us.us, !llvm.loop !102

._crit_edge.us.us.us:                             ; preds = %.lr.ph.us.us.us, %24
  call void @llvm.lifetime.end.p0(i64 16, ptr nonnull %4) #11
  %indvars.iv.next48 = add nuw nsw i64 %indvars.iv47, 1
  %exitcond.not = icmp eq i64 %indvars.iv.next48, %wide.trip.count
  br i1 %exitcond.not, label %._crit_edge40.split.us.us.us, label %24, !llvm.loop !103

._crit_edge40.split.us.us.us:                     ; preds = %._crit_edge.us.us.us
  %50 = add nuw nsw i32 %.02441.us.us, 1
  %indvars.iv.next51 = add nuw nsw i64 %indvars.iv50, %19
  %exitcond53.not = icmp eq i32 %.02441.us.us, %20
  br i1 %exitcond53.not, label %._crit_edge43, label %.preheader.us.us, !llvm.loop !104

.preheader:                                       ; preds = %.preheader.lr.ph, %._crit_edge40.split
  %51 = phi i16 [ %104, %._crit_edge40.split ], [ %6, %.preheader.lr.ph ]
  %52 = phi i16 [ %105, %._crit_edge40.split ], [ %14, %.preheader.lr.ph ]
  %.02441 = phi i32 [ %106, %._crit_edge40.split ], [ 1, %.preheader.lr.ph ]
  %53 = icmp ugt i16 %52, 2
  br i1 %53, label %.lr.ph39, label %._crit_edge40.split

.lr.ph39:                                         ; preds = %.preheader
  %54 = zext i16 %52 to i32
  %55 = srem i32 %.02441, %2
  %56 = shl i32 %55, 9
  br label %57

57:                                               ; preds = %.lr.ph39, %._crit_edge37
  %58 = phi i32 [ %54, %.lr.ph39 ], [ %101, %._crit_edge37 ]
  %.02738 = phi i32 [ 1, %.lr.ph39 ], [ %99, %._crit_edge37 ]
  call void @llvm.lifetime.start.p0(i64 16, ptr nonnull %4) #11
  %59 = mul nuw nsw i32 %58, %.02441
  %60 = add nuw nsw i32 %59, %.02738
  %61 = zext nneg i32 %60 to i64
  %62 = getelementptr inbounds nuw [4 x i16], ptr %10, i64 %61
  %63 = srem i32 %.02738, %2
  %64 = shl i32 %63, 5
  %65 = add i32 %64, %56
  %66 = sext i32 %65 to i64
  %67 = getelementptr inbounds i32, ptr %1, i64 %66
  call void @llvm.memset.p0.i64(ptr noundef nonnull align 16 dereferenceable(16) %4, i8 0, i64 16, i1 false)
  %68 = getelementptr inbounds nuw i8, ptr %67, i64 4
  %69 = load i32, ptr %67, align 4, !tbaa !96
  %.not30 = icmp eq i32 %69, 0
  br i1 %.not30, label %.lr.ph36.preheader, label %.lr.ph

.lr.ph:                                           ; preds = %57, %.lr.ph
  %.032 = phi i32 [ %70, %.lr.ph ], [ %69, %57 ]
  %.02531 = phi ptr [ %85, %.lr.ph ], [ %68, %57 ]
  %70 = add nsw i32 %.032, -1
  %71 = load i32, ptr %.02531, align 4, !tbaa !96
  %72 = sext i32 %71 to i64
  %73 = getelementptr inbounds i16, ptr %62, i64 %72
  %74 = load i16, ptr %73, align 2, !tbaa !82
  %75 = zext i16 %74 to i32
  %76 = getelementptr inbounds nuw i8, ptr %.02531, i64 4
  %77 = load i32, ptr %76, align 4, !tbaa !96
  %78 = shl i32 %75, %77
  %79 = getelementptr inbounds nuw i8, ptr %.02531, i64 8
  %80 = load i32, ptr %79, align 4, !tbaa !96
  %81 = sext i32 %80 to i64
  %82 = getelementptr inbounds [4 x i32], ptr %4, i64 0, i64 %81
  %83 = load i32, ptr %82, align 4, !tbaa !96
  %84 = add nsw i32 %83, %78
  store i32 %84, ptr %82, align 4, !tbaa !96
  %85 = getelementptr inbounds nuw i8, ptr %.02531, i64 12
  %.not = icmp eq i32 %70, 0
  br i1 %.not, label %.lr.ph36.preheader, label %.lr.ph, !llvm.loop !102

.lr.ph36.preheader:                               ; preds = %.lr.ph, %57
  %.12634.ph = phi ptr [ %68, %57 ], [ %85, %.lr.ph ]
  br label %.lr.ph36

.lr.ph36:                                         ; preds = %.lr.ph36.preheader, %.lr.ph36
  %86 = phi i32 [ %98, %.lr.ph36 ], [ %13, %.lr.ph36.preheader ]
  %.12634 = phi ptr [ %97, %.lr.ph36 ], [ %.12634.ph, %.lr.ph36.preheader ]
  %87 = load i32, ptr %.12634, align 4, !tbaa !96
  %88 = sext i32 %87 to i64
  %89 = getelementptr inbounds [4 x i32], ptr %4, i64 0, i64 %88
  %90 = load i32, ptr %89, align 4, !tbaa !96
  %91 = getelementptr inbounds nuw i8, ptr %.12634, i64 4
  %92 = load i32, ptr %91, align 4, !tbaa !96
  %93 = mul nsw i32 %92, %90
  %94 = lshr i32 %93, 8
  %95 = trunc i32 %94 to i16
  %96 = getelementptr inbounds i16, ptr %62, i64 %88
  store i16 %95, ptr %96, align 2, !tbaa !82
  %97 = getelementptr inbounds nuw i8, ptr %.12634, i64 8
  %98 = add nsw i32 %86, -1
  %.not29 = icmp eq i32 %98, 0
  br i1 %.not29, label %._crit_edge37, label %.lr.ph36, !llvm.loop !105

._crit_edge37:                                    ; preds = %.lr.ph36
  call void @llvm.lifetime.end.p0(i64 16, ptr nonnull %4) #11
  %99 = add nuw nsw i32 %.02738, 1
  %100 = load i16, ptr %9, align 2, !tbaa !79
  %101 = zext i16 %100 to i32
  %102 = add nsw i32 %101, -1
  %103 = icmp slt i32 %99, %102
  br i1 %103, label %57, label %._crit_edge40.split.loopexit, !llvm.loop !103

._crit_edge40.split.loopexit:                     ; preds = %._crit_edge37
  %.pre54 = load i16, ptr %5, align 4, !tbaa !77
  br label %._crit_edge40.split

._crit_edge40.split:                              ; preds = %._crit_edge40.split.loopexit, %.preheader
  %104 = phi i16 [ %.pre54, %._crit_edge40.split.loopexit ], [ %51, %.preheader ]
  %105 = phi i16 [ %100, %._crit_edge40.split.loopexit ], [ %52, %.preheader ]
  %106 = add nuw nsw i32 %.02441, 1
  %107 = zext i16 %104 to i32
  %108 = add nsw i32 %107, -1
  %109 = icmp slt i32 %106, %108
  br i1 %109, label %.preheader, label %._crit_edge43, !llvm.loop !104

._crit_edge43:                                    ; preds = %._crit_edge40.split, %._crit_edge40.split.us.us.us, %.preheader.lr.ph.split.us, %3
  ret void
}